target datalayout = "e-m:e-p270:32:32-p271:32:32-p272:64:64-i64:64-i128:128-f80:128-n8:16:32:64-S128"
target triple = "x86_64-pc-linux-gnu"

%"class.logging::LogMessageVoidify" = type { i8 }
%"class.logging::LogMessage" = type <{ i32, [4 x i8], %"class.std::__cxx11::basic_ostringstream", i64, ptr, i32, [4 x i8] }>
%"class.std::__cxx11::basic_ostringstream" = type { %"class.std::basic_ostream.base", %"class.std::__cxx11::basic_stringbuf", %"class.std::basic_ios" }
%"class.std::basic_ostream.base" = type { ptr }
%"class.std::__cxx11::basic_stringbuf" = type { %"class.std::basic_streambuf", i32, %"class.std::__cxx11::basic_string" }
%"class.std::basic_streambuf" = type { ptr, ptr, ptr, ptr, ptr, ptr, ptr, %"class.std::locale" }
%"class.std::locale" = type { ptr }
%"class.std::__cxx11::basic_string" = type { %"struct.std::__cxx11::basic_string<char>::_Alloc_hider", i64, %union.anon }
%"struct.std::__cxx11::basic_string<char>::_Alloc_hider" = type { ptr }
%union.anon = type { i64, [8 x i8] }
%"class.std::basic_ios" = type { %"class.std::ios_base", ptr, i8, i8, ptr, ptr, ptr, ptr }
%"class.std::ios_base" = type { ptr, i64, i64, i32, i32, i32, ptr, %"struct.std::ios_base::_Words", [8 x %"struct.std::ios_base::_Words"], i32, ptr, %"class.std::locale" }
%"struct.std::ios_base::_Words" = type { ptr, i64 }

@.str = private unnamed_addr constant [123 x i8] c"generated/home/dtcxzyw/WorkSpace/Projects/compilers/llvm-opt-benchmark/bench/libquic/libquic/src/net/spdy/spdy_protocol.cc\00", align 1
@.str.1 = private unnamed_addr constant [19 x i8] c"Invalid priority: \00", align 1

; Function Attrs: inlinehint mustprogress nounwind uwtable
define linkonce_odr noundef i32 @_ZStorSt12_Ios_IostateS_(i32 noundef %0, i32 noundef %1) #9 comdat {
  %3 = alloca i32, align 4
  %4 = alloca i32, align 4
  store i32 %0, ptr %3, align 4, !tbaa !204
  store i32 %1, ptr %4, align 4, !tbaa !204
  %5 = load i32, ptr %3, align 4, !tbaa !204
  %6 = load i32, ptr %4, align 4, !tbaa !204
  %7 = or i32 %5, %6
  ret i32 %7
}

; Function Attrs: mustprogress nounwind uwtable
define available_externally noundef i32 @_ZNKSt9basic_iosIcSt11char_traitsIcEE7rdstateEv(ptr noundef nonnull align 8 dereferenceable(264) %0) #3 align 2 {
  %2 = alloca ptr, align 8
  store ptr %0, ptr %2, align 8, !tbaa !202
  %3 = load ptr, ptr %2, align 8
  %4 = getelementptr inbounds nuw %"class.std::ios_base", ptr %3, i32 0, i32 5
  %5 = load i32, ptr %4, align 8, !tbaa !206
  ret i32 %5
}

; Function Attrs: mustprogress nounwind uwtable
define linkonce_odr noundef i64 @_ZNSt11char_traitsIcE6lengthEPKc(ptr noundef %0) #3 comdat align 2 {
  %2 = alloca ptr, align 8
  store ptr %0, ptr %2, align 8, !tbaa !11
  %3 = load ptr, ptr %2, align 8, !tbaa !11
  %4 = call i64 @strlen(ptr noundef %3) #15
  ret i64 %4
}

; Function Attrs: mustprogress uwtable
define available_externally void @_ZNSt9basic_iosIcSt11char_traitsIcEE8setstateESt12_Ios_Iostate(ptr noundef nonnull align 8 dereferenceable(264) %0, i32 noundef %1) #0 align 2 {
  %3 = alloca ptr, align 8
  %4 = alloca i32, align 4
  store ptr %0, ptr %3, align 8, !tbaa !202
  store i32 %1, ptr %4, align 4, !tbaa !204
  %5 = load ptr, ptr %3, align 8
  %6 = call noundef i32 @_ZNKSt9basic_iosIcSt11char_traitsIcEE7rdstateEv(ptr noundef nonnull align 8 dereferenceable(264) %5)
  %7 = load i32, ptr %4, align 4, !tbaa !204
  %8 = call noundef i32 @_ZStorSt12_Ios_IostateS_(i32 noundef %6, i32 noundef %7)
  call void @_ZNSt9basic_iosIcSt11char_traitsIcEE5clearESt12_Ios_Iostate(ptr noundef nonnull align 8 dereferenceable(264) %5, i32 noundef %8)
  ret void
}

; Function Attrs: mustprogress nounwind uwtable
define linkonce_odr void @_ZN7logging17LogMessageVoidifyanERSo(ptr noundef nonnull align 1 dereferenceable(1) %0, ptr noundef nonnull align 8 dereferenceable(8) %1) #3 comdat align 2 {
  %3 = alloca ptr, align 8
  %4 = alloca ptr, align 8
  store ptr %0, ptr %3, align 8, !tbaa !6
  store ptr %1, ptr %4, align 8, !tbaa !9
  ret void
}

; Function Attrs: inlinehint mustprogress uwtable
define available_externally noundef nonnull align 8 dereferenceable(8) ptr @_ZStlsISt11char_traitsIcEERSt13basic_ostreamIcT_ES5_PKc(ptr noundef nonnull align 8 dereferenceable(8) %0, ptr noundef %1) #4 {
  %3 = alloca ptr, align 8
  %4 = alloca ptr, align 8
  store ptr %0, ptr %3, align 8, !tbaa !9
  store ptr %1, ptr %4, align 8, !tbaa !11
  %5 = load ptr, ptr %4, align 8, !tbaa !11
  %6 = icmp ne ptr %5, null
  br i1 %6, label %13, label %7

7:                                                ; preds = %2
  %8 = load ptr, ptr %3, align 8, !tbaa !9
  %9 = load ptr, ptr %8, align 8, !tbaa !13
  %10 = getelementptr i8, ptr %9, i64 -24
  %11 = load i64, ptr %10, align 8
  %12 = getelementptr inbounds i8, ptr %8, i64 %11
  call void @_ZNSt9basic_iosIcSt11char_traitsIcEE8setstateESt12_Ios_Iostate(ptr noundef nonnull align 8 dereferenceable(264) %12, i32 noundef 1)
  br label %19

13:                                               ; preds = %2
  %14 = load ptr, ptr %3, align 8, !tbaa !9
  %15 = load ptr, ptr %4, align 8, !tbaa !11
  %16 = load ptr, ptr %4, align 8, !tbaa !11
  %17 = call noundef i64 @_ZNSt11char_traitsIcE6lengthEPKc(ptr noundef %16)
  %18 = call noundef nonnull align 8 dereferenceable(8) ptr @_ZSt16__ostream_insertIcSt11char_traitsIcEERSt13basic_ostreamIT_T0_ES6_PKS3_l(ptr noundef nonnull align 8 dereferenceable(8) %14, ptr noundef %15, i64 noundef %17)
  br label %19

19:                                               ; preds = %13, %7
  %20 = load ptr, ptr %3, align 8, !tbaa !9
  ret ptr %20
}

; Function Attrs: mustprogress nounwind uwtable
define linkonce_odr noundef nonnull align 8 dereferenceable(8) ptr @_ZN7logging10LogMessage6streamEv(ptr noundef nonnull align 8 dereferenceable(404) %0) #3 comdat align 2 {
  %2 = alloca ptr, align 8
  store ptr %0, ptr %2, align 8, !tbaa !15
  %3 = load ptr, ptr %2, align 8
  %4 = getelementptr inbounds nuw %"class.logging::LogMessage", ptr %3, i32 0, i32 2
  ret ptr %4
}

; Function Attrs: mustprogress nounwind uwtable
define linkonce_odr void @_ZN7logging17LogMessageVoidifyC2Ev(ptr noundef nonnull align 1 dereferenceable(1) %0) unnamed_addr #3 comdat align 2 {
  %2 = alloca ptr, align 8
  store ptr %0, ptr %2, align 8, !tbaa !6
  ret void
}

; Function Attrs: mustprogress uwtable
define noundef zeroext i8 @_ZN3net18ClampSpdy3PriorityEh(i8 noundef zeroext %0) #0 personality ptr @__gxx_personality_v0 {
  %2 = alloca i8, align 1
  %3 = alloca i8, align 1
  %4 = alloca %"class.logging::LogMessageVoidify", align 1
  %5 = alloca %"class.logging::LogMessage", align 8
  %6 = alloca i1, align 1
  %7 = alloca i1, align 1
  %8 = alloca ptr, align 8
  %9 = alloca i32, align 4
  %10 = alloca %"class.logging::LogMessageVoidify", align 1
  %11 = alloca %"class.logging::LogMessage", align 8
  %12 = alloca i1, align 1
  %13 = alloca i1, align 1
  store i8 %0, ptr %3, align 1, !tbaa !3
  %14 = load i8, ptr %3, align 1, !tbaa !3
  %15 = zext i8 %14 to i32
  %16 = icmp slt i32 %15, 0
  br i1 %16, label %17, label %47

17:                                               ; preds = %1
  %18 = call noundef zeroext i1 @_ZN7logging22ShouldCreateLogMessageEi(i32 noundef 2)
  call void @llvm.lifetime.start.p0(i64 1, ptr %4) #15
  store i1 false, ptr %6, align 1
  store i1 false, ptr %7, align 1
  br i1 %18, label %20, label %19

19:                                               ; preds = %17
  br label %30

20:                                               ; preds = %17
  call void @_ZN7logging17LogMessageVoidifyC2Ev(ptr noundef nonnull align 1 dereferenceable(1) %4)
  call void @llvm.lifetime.start.p0(i64 408, ptr %5) #15
  store i1 true, ptr %6, align 1
  call void @_ZN7logging10LogMessageC1EPKcii(ptr noundef nonnull align 8 dereferenceable(404) %5, ptr noundef @.str, i32 noundef 14, i32 noundef 2)
  store i1 true, ptr %7, align 1
  %21 = invoke noundef nonnull align 8 dereferenceable(8) ptr @_ZN7logging10LogMessage6streamEv(ptr noundef nonnull align 8 dereferenceable(404) %5)
          to label %22 unwind label %37

22:                                               ; preds = %20
  %23 = invoke noundef nonnull align 8 dereferenceable(8) ptr @_ZStlsISt11char_traitsIcEERSt13basic_ostreamIcT_ES5_PKc(ptr noundef nonnull align 8 dereferenceable(8) %21, ptr noundef @.str.1)
          to label %24 unwind label %37

24:                                               ; preds = %22
  %25 = load i8, ptr %3, align 1, !tbaa !3
  %26 = zext i8 %25 to i32
  %27 = invoke noundef nonnull align 8 dereferenceable(8) ptr @_ZNSolsEi(ptr noundef nonnull align 8 dereferenceable(8) %23, i32 noundef %26)
          to label %28 unwind label %37

28:                                               ; preds = %24
  invoke void @_ZN7logging17LogMessageVoidifyanERSo(ptr noundef nonnull align 1 dereferenceable(1) %4, ptr noundef nonnull align 8 dereferenceable(8) %27)
          to label %29 unwind label %37

29:                                               ; preds = %28
  br label %30

30:                                               ; preds = %29, %19
  %31 = load i1, ptr %7, align 1
  br i1 %31, label %32, label %33

32:                                               ; preds = %30
  call void @_ZN7logging10LogMessageD1Ev(ptr noundef nonnull align 8 dereferenceable(404) %5) #15
  br label %33

33:                                               ; preds = %32, %30
  %34 = load i1, ptr %6, align 1
  br i1 %34, label %35, label %36

35:                                               ; preds = %33
  call void @llvm.lifetime.end.p0(i64 408, ptr %5) #15
  br label %36

36:                                               ; preds = %35, %33
  call void @llvm.lifetime.end.p0(i64 1, ptr %4) #15
  store i8 0, ptr %2, align 1
  br label %83

37:                                               ; preds = %28, %24, %22, %20
  %38 = landingpad { ptr, i32 }
          cleanup
  %39 = extractvalue { ptr, i32 } %38, 0
  store ptr %39, ptr %8, align 8
  %40 = extractvalue { ptr, i32 } %38, 1
  store i32 %40, ptr %9, align 4
  %41 = load i1, ptr %7, align 1
  br i1 %41, label %42, label %43

42:                                               ; preds = %37
  call void @_ZN7logging10LogMessageD1Ev(ptr noundef nonnull align 8 dereferenceable(404) %5) #15
  br label %43

43:                                               ; preds = %42, %37
  %44 = load i1, ptr %6, align 1
  br i1 %44, label %45, label %46

45:                                               ; preds = %43
  call void @llvm.lifetime.end.p0(i64 408, ptr %5) #15
  br label %46

46:                                               ; preds = %45, %43
  call void @llvm.lifetime.end.p0(i64 1, ptr %4) #15
  br label %85

47:                                               ; preds = %1
  %48 = load i8, ptr %3, align 1, !tbaa !3
  %49 = zext i8 %48 to i32
  %50 = icmp sgt i32 %49, 7
  br i1 %50, label %51, label %81

51:                                               ; preds = %47
  %52 = call noundef zeroext i1 @_ZN7logging22ShouldCreateLogMessageEi(i32 noundef 2)
  call void @llvm.lifetime.start.p0(i64 1, ptr %10) #15
  store i1 false, ptr %12, align 1
  store i1 false, ptr %13, align 1
  br i1 %52, label %54, label %53

53:                                               ; preds = %51
  br label %64

54:                                               ; preds = %51
  call void @_ZN7logging17LogMessageVoidifyC2Ev(ptr noundef nonnull align 1 dereferenceable(1) %10)
  call void @llvm.lifetime.start.p0(i64 408, ptr %11) #15
  store i1 true, ptr %12, align 1
  call void @_ZN7logging10LogMessageC1EPKcii(ptr noundef nonnull align 8 dereferenceable(404) %11, ptr noundef @.str, i32 noundef 18, i32 noundef 2)
  store i1 true, ptr %13, align 1
  %55 = invoke noundef nonnull align 8 dereferenceable(8) ptr @_ZN7logging10LogMessage6streamEv(ptr noundef nonnull align 8 dereferenceable(404) %11)
          to label %56 unwind label %71

56:                                               ; preds = %54
  %57 = invoke noundef nonnull align 8 dereferenceable(8) ptr @_ZStlsISt11char_traitsIcEERSt13basic_ostreamIcT_ES5_PKc(ptr noundef nonnull align 8 dereferenceable(8) %55, ptr noundef @.str.1)
          to label %58 unwind label %71

58:                                               ; preds = %56
  %59 = load i8, ptr %3, align 1, !tbaa !3
  %60 = zext i8 %59 to i32
  %61 = invoke noundef nonnull align 8 dereferenceable(8) ptr @_ZNSolsEi(ptr noundef nonnull align 8 dereferenceable(8) %57, i32 noundef %60)
          to label %62 unwind label %71

62:                                               ; preds = %58
  invoke void @_ZN7logging17LogMessageVoidifyanERSo(ptr noundef nonnull align 1 dereferenceable(1) %10, ptr noundef nonnull align 8 dereferenceable(8) %61)
          to label %63 unwind label %71

63:                                               ; preds = %62
  br label %64

64:                                               ; preds = %63, %53
  %65 = load i1, ptr %13, align 1
  br i1 %65, label %66, label %67

66:                                               ; preds = %64
  call void @_ZN7logging10LogMessageD1Ev(ptr noundef nonnull align 8 dereferenceable(404) %11) #15
  br label %67

67:                                               ; preds = %66, %64
  %68 = load i1, ptr %12, align 1
  br i1 %68, label %69, label %70

69:                                               ; preds = %67
  call void @llvm.lifetime.end.p0(i64 408, ptr %11) #15
  br label %70

70:                                               ; preds = %69, %67
  call void @llvm.lifetime.end.p0(i64 1, ptr %10) #15
  store i8 7, ptr %2, align 1
  br label %83

71:                                               ; preds = %62, %58, %56, %54
  %72 = landingpad { ptr, i32 }
          cleanup
  %73 = extractvalue { ptr, i32 } %72, 0
  store ptr %73, ptr %8, align 8
  %74 = extractvalue { ptr, i32 } %72, 1
  store i32 %74, ptr %9, align 4
  %75 = load i1, ptr %13, align 1
  br i1 %75, label %76, label %77

76:                                               ; preds = %71
  call void @_ZN7logging10LogMessageD1Ev(ptr noundef nonnull align 8 dereferenceable(404) %11) #15
  br label %77

77:                                               ; preds = %76, %71
  %78 = load i1, ptr %12, align 1
  br i1 %78, label %79, label %80

79:                                               ; preds = %77
  call void @llvm.lifetime.end.p0(i64 408, ptr %11) #15
  br label %80

80:                                               ; preds = %79, %77
  call void @llvm.lifetime.end.p0(i64 1, ptr %10) #15
  br label %85

81:                                               ; preds = %47
  %82 = load i8, ptr %3, align 1, !tbaa !3
  store i8 %82, ptr %2, align 1
  br label %83

83:                                               ; preds = %81, %70, %36
  %84 = load i8, ptr %2, align 1
  ret i8 %84

85:                                               ; preds = %80, %46
  %86 = load ptr, ptr %8, align 8
  %87 = load i32, ptr %9, align 4
  %88 = insertvalue { ptr, i32 } poison, ptr %86, 0
  %89 = insertvalue { ptr, i32 } %88, i32 %87, 1
  resume { ptr, i32 } %89
}