; Function Attrs: mustprogress uwtable
define noundef zeroext range(i8 0, 8) i8 @_ZN3net18ClampSpdy3PriorityEh(i8 noundef zeroext %0) local_unnamed_addr #0 personality ptr @__gxx_personality_v0 {
  %2 = alloca %"class.logging::LogMessage", align 8
  %3 = zext i8 %0 to i32
  %4 = icmp ugt i8 %0, 7
  br i1 %4, label %5, label %.critedge22

5:                                                ; preds = %1
  %6 = tail call noundef zeroext i1 @_ZN7logging22ShouldCreateLogMessageEi(i32 noundef 2)
  br i1 %6, label %7, label %.critedge22

7:                                                ; preds = %5
  call void @llvm.lifetime.start.p0(i64 408, ptr nonnull %2) #22
  call void @_ZN7logging10LogMessageC1EPKcii(ptr noundef nonnull align 8 dereferenceable(404) %2, ptr noundef nonnull @.str, i32 noundef 18, i32 noundef 2)
  %8 = getelementptr inbounds nuw i8, ptr %2, i64 8
  %9 = invoke noundef nonnull align 8 dereferenceable(8) ptr @_ZSt16__ostream_insertIcSt11char_traitsIcEERSt13basic_ostreamIT_T0_ES6_PKS3_l(ptr noundef nonnull align 8 dereferenceable(8) %8, ptr noundef nonnull @.str.1, i64 noundef 18)
          to label %_ZStlsISt11char_traitsIcEERSt13basic_ostreamIcT_ES5_PKc.exit unwind label %11

_ZStlsISt11char_traitsIcEERSt13basic_ostreamIcT_ES5_PKc.exit: ; preds = %7
  %10 = invoke noundef nonnull align 8 dereferenceable(8) ptr @_ZNSolsEi(ptr noundef nonnull align 8 dereferenceable(8) %8, i32 noundef %3)
          to label %.critedge unwind label %11

.critedge:                                        ; preds = %_ZStlsISt11char_traitsIcEERSt13basic_ostreamIcT_ES5_PKc.exit
  call void @_ZN7logging10LogMessageD1Ev(ptr noundef nonnull align 8 dereferenceable(404) %2) #22
  call void @llvm.lifetime.end.p0(i64 408, ptr nonnull %2) #22
  br label %.critedge22

11:                                               ; preds = %7, %_ZStlsISt11char_traitsIcEERSt13basic_ostreamIcT_ES5_PKc.exit
  %12 = landingpad { ptr, i32 }
          cleanup
  call void @_ZN7logging10LogMessageD1Ev(ptr noundef nonnull align 8 dereferenceable(404) %2) #22
  call void @llvm.lifetime.end.p0(i64 408, ptr nonnull %2) #22
  resume { ptr, i32 } %12

.critedge22:                                      ; preds = %.critedge, %5, %1
  %.020 = phi i8 [ %0, %1 ], [ 7, %5 ], [ 7, %.critedge ]
  ret i8 %.020
}